target datalayout = "e-m:e-p270:32:32-p271:32:32-p272:64:64-i64:64-i128:128-f80:128-n8:16:32:64-S128"
target triple = "x86_64-unknown-linux-gnu"

%"class.google::LogMessageVoidify" = type { i8 }
%"class.google::LogMessageFatal" = type { %"class.google::LogMessage" }
%"class.google::LogMessage" = type { ptr, ptr, %"struct.google::LogMessageTime" }
%"struct.google::LogMessageTime" = type { %struct.tm, i64, i32, i64 }
%struct.tm = type { i32, i32, i32, i32, i32, i32, i32, i32, i32, i64, ptr }
%"class.proxygen::HTTP2PriorityQueue::Node" = type { %"class.proxygen::HTTP2PriorityQueueBase::BaseNode", %"class.folly::HHWheelTimerBase<std::chrono::duration<long, std::ratio<1, 1000>>>::Callback", ptr, ptr, i64, i16, ptr, i8, i8, i64, i64, %"class.std::__cxx11::list", %"struct.std::_List_iterator", %"class.boost::intrusive::list_member_hook", %"class.boost::intrusive::list" }
%"class.proxygen::HTTP2PriorityQueueBase::BaseNode" = type { ptr }
%"class.folly::HHWheelTimerBase<std::chrono::duration<long, std::ratio<1, 1000>>>::Callback" = type { ptr, %"class.boost::intrusive::list_base_hook", ptr, %"class.std::chrono::time_point", i32, %"class.std::shared_ptr" }
%"class.boost::intrusive::list_base_hook" = type { %"class.boost::intrusive::generic_hook" }
%"class.boost::intrusive::generic_hook" = type { %"struct.boost::intrusive::node_holder" }
%"struct.boost::intrusive::node_holder" = type { %"struct.boost::intrusive::list_node" }
%"struct.boost::intrusive::list_node" = type { ptr, ptr }
%"class.std::chrono::time_point" = type { %"class.std::chrono::duration" }
%"class.std::chrono::duration" = type { i64 }
%"class.std::shared_ptr" = type { %"class.std::__shared_ptr" }
%"class.std::__shared_ptr" = type { ptr, %"class.std::__shared_count" }
%"class.std::__shared_count" = type { ptr }
%"class.std::__cxx11::list" = type { %"class.std::__cxx11::_List_base" }
%"class.std::__cxx11::_List_base" = type { %"struct.std::__cxx11::_List_base<std::unique_ptr<proxygen::HTTP2PriorityQueue::Node>, std::allocator<std::unique_ptr<proxygen::HTTP2PriorityQueue::Node>>>::_List_impl" }
%"struct.std::__cxx11::_List_base<std::unique_ptr<proxygen::HTTP2PriorityQueue::Node>, std::allocator<std::unique_ptr<proxygen::HTTP2PriorityQueue::Node>>>::_List_impl" = type { %"struct.std::__detail::_List_node_header" }
%"struct.std::__detail::_List_node_header" = type { %"struct.std::__detail::_List_node_base", i64 }
%"struct.std::__detail::_List_node_base" = type { ptr, ptr }
%"struct.std::_List_iterator" = type { ptr }
%"class.boost::intrusive::list_member_hook" = type { %"class.boost::intrusive::generic_hook.0" }
%"class.boost::intrusive::generic_hook.0" = type { %"struct.boost::intrusive::list_node" }
%"class.boost::intrusive::list" = type { %"class.boost::intrusive::list_impl" }
%"class.boost::intrusive::list_impl" = type { %"struct.boost::intrusive::list_impl<boost::intrusive::mhtraits<proxygen::HTTP2PriorityQueue::Node, boost::intrusive::list_member_hook<boost::intrusive::link_mode<boost::intrusive::auto_unlink>>, &proxygen::HTTP2PriorityQueue::Node::enqueuedHook_>, unsigned long, false, void>::data_t" }
%"struct.boost::intrusive::list_impl<boost::intrusive::mhtraits<proxygen::HTTP2PriorityQueue::Node, boost::intrusive::list_member_hook<boost::intrusive::link_mode<boost::intrusive::auto_unlink>>, &proxygen::HTTP2PriorityQueue::Node::enqueuedHook_>, unsigned long, false, void>::data_t" = type { %"struct.boost::intrusive::list_impl<boost::intrusive::mhtraits<proxygen::HTTP2PriorityQueue::Node, boost::intrusive::list_member_hook<boost::intrusive::link_mode<boost::intrusive::auto_unlink>>, &proxygen::HTTP2PriorityQueue::Node::enqueuedHook_>, unsigned long, false, void>::root_plus_size" }
%"struct.boost::intrusive::list_impl<boost::intrusive::mhtraits<proxygen::HTTP2PriorityQueue::Node, boost::intrusive::list_member_hook<boost::intrusive::link_mode<boost::intrusive::auto_unlink>>, &proxygen::HTTP2PriorityQueue::Node::enqueuedHook_>, unsigned long, false, void>::root_plus_size" = type { %"struct.boost::intrusive::detail::default_header_holder" }
%"struct.boost::intrusive::detail::default_header_holder" = type { %"struct.boost::intrusive::list_node" }

@.str = private unnamed_addr constant [144 x i8] c"generated/home/dtcxzyw/WorkSpace/Projects/compilers/llvm-opt-benchmark/bench/proxygen/proxygen/proxygen/lib/http/session/HTTP2PriorityQueue.cpp\00", align 1
@.str.9 = private unnamed_addr constant [25 x i8] c"Check failed: enqueued_ \00", align 1

; Function Attrs: mustprogress nounwind uwtable
define linkonce_odr void @_ZN6google17LogMessageVoidifyanERSo(ptr noundef nonnull align 1 dereferenceable(1) %this, ptr noundef nonnull align 8 dereferenceable(8) %0) #4 comdat align 2 {
entry:
  %this.addr = alloca ptr, align 8
  %.addr = alloca ptr, align 8
  store ptr %this, ptr %this.addr, align 8
  store ptr %0, ptr %.addr, align 8
  ret void
}

; Function Attrs: mustprogress nounwind uwtable
define linkonce_odr void @_ZN6google17LogMessageVoidifyC2Ev(ptr noundef nonnull align 1 dereferenceable(1) %this) unnamed_addr #4 comdat align 2 {
entry:
  %this.addr = alloca ptr, align 8
  store ptr %this, ptr %this.addr, align 8
  ret void
}

; Function Attrs: mustprogress uwtable
define void @_ZN8proxygen18HTTP2PriorityQueue4Node18clearPendingEgressEv(ptr noundef nonnull align 8 dereferenceable(200) %this) #5 align 2 personality ptr @__gxx_personality_v0 {
entry:
  %this.addr = alloca ptr, align 8
  %ref.tmp = alloca %"class.google::LogMessageVoidify", align 1
  %ref.tmp2 = alloca %"class.google::LogMessageFatal", align 8
  %cleanup.cond = alloca i1, align 1
  %exn.slot = alloca ptr, align 8
  %ehselector.slot = alloca i32, align 4
  store ptr %this, ptr %this.addr, align 8
  %this1 = load ptr, ptr %this.addr, align 8
  %enqueued_ = getelementptr inbounds %"class.proxygen::HTTP2PriorityQueue::Node", ptr %this1, i32 0, i32 8
  %0 = load i8, ptr %enqueued_, align 1
  %tobool = trunc i8 %0 to i1
  %lnot = xor i1 %tobool, true
  store i1 false, ptr %cleanup.cond, align 1
  br i1 %lnot, label %cond.false, label %cond.true

cond.true:                                        ; preds = %entry
  br label %cond.end

cond.false:                                       ; preds = %entry
  call void @_ZN6google17LogMessageVoidifyC2Ev(ptr noundef nonnull align 1 dereferenceable(1) %ref.tmp)
  call void @_ZN6google15LogMessageFatalC1EPKci(ptr noundef nonnull align 8 dereferenceable(96) %ref.tmp2, ptr noundef @.str, i32 noundef 199)
  store i1 true, ptr %cleanup.cond, align 1
  %call = invoke noundef nonnull align 8 dereferenceable(8) ptr @_ZN6google10LogMessage6streamEv(ptr noundef nonnull align 8 dereferenceable(96) %ref.tmp2)
          to label %invoke.cont unwind label %lpad

invoke.cont:                                      ; preds = %cond.false
  %call4 = invoke noundef nonnull align 8 dereferenceable(8) ptr @_ZStlsISt11char_traitsIcEERSt13basic_ostreamIcT_ES5_PKc(ptr noundef nonnull align 8 dereferenceable(8) %call, ptr noundef @.str.9)
          to label %invoke.cont3 unwind label %lpad

invoke.cont3:                                     ; preds = %invoke.cont
  invoke void @_ZN6google17LogMessageVoidifyanERSo(ptr noundef nonnull align 1 dereferenceable(1) %ref.tmp, ptr noundef nonnull align 8 dereferenceable(8) %call4)
          to label %invoke.cont5 unwind label %lpad

invoke.cont5:                                     ; preds = %invoke.cont3
  br label %cond.end

cond.end:                                         ; preds = %invoke.cont5, %cond.true
  %cleanup.is_active = load i1, ptr %cleanup.cond, align 1
  br i1 %cleanup.is_active, label %cleanup.action, label %cleanup.done

cleanup.action:                                   ; preds = %cond.end
  call void @_ZN6google15LogMessageFatalD1Ev(ptr noundef nonnull align 8 dereferenceable(96) %ref.tmp2) #26
  unreachable

lpad:                                             ; preds = %invoke.cont3, %invoke.cont, %cond.false
  %1 = landingpad { ptr, i32 }
          cleanup
  %2 = extractvalue { ptr, i32 } %1, 0
  store ptr %2, ptr %exn.slot, align 8
  %3 = extractvalue { ptr, i32 } %1, 1
  store i32 %3, ptr %ehselector.slot, align 4
  %cleanup.is_active6 = load i1, ptr %cleanup.cond, align 1
  br i1 %cleanup.is_active6, label %cleanup.action7, label %cleanup.done8

4:                                                ; No predecessors!
  br label %cleanup.done

cleanup.done:                                     ; preds = %4, %cond.end
  %enqueued_9 = getelementptr inbounds %"class.proxygen::HTTP2PriorityQueue::Node", ptr %this1, i32 0, i32 8
  store i8 0, ptr %enqueued_9, align 1
  call void @_ZN8proxygen18HTTP2PriorityQueue4Node27propagatePendingEgressClearEPS1_(ptr noundef %this1)
  ret void

cleanup.action7:                                  ; preds = %lpad
  call void @_ZN6google15LogMessageFatalD1Ev(ptr noundef nonnull align 8 dereferenceable(96) %ref.tmp2) #26
  unreachable

5:                                                ; No predecessors!
  br label %cleanup.done8

cleanup.done8:                                    ; preds = %5, %lpad
  br label %eh.resume

eh.resume:                                        ; preds = %cleanup.done8
  %exn = load ptr, ptr %exn.slot, align 8
  %sel = load i32, ptr %ehselector.slot, align 4
  %lpad.val = insertvalue { ptr, i32 } poison, ptr %exn, 0
  %lpad.val10 = insertvalue { ptr, i32 } %lpad.val, i32 %sel, 1
  resume { ptr, i32 } %lpad.val10
}