; Function Attrs: mustprogress uwtable
define void @_ZN8proxygen18HTTP2PriorityQueue4Node18clearPendingEgressEv(ptr noundef nonnull align 8 dereferenceable(200) %this) local_unnamed_addr #4 align 2 personality ptr @__gxx_personality_v0 {
entry:
  %ref.tmp2 = alloca %"class.google::LogMessageFatal", align 8
  %enqueued_ = getelementptr inbounds i8, ptr %this, i64 113
  %0 = load i8, ptr %enqueued_, align 1
  %1 = and i8 %0, 1
  %tobool.not = icmp eq i8 %1, 0
  br i1 %tobool.not, label %cond.false, label %cleanup.done

cond.false:                                       ; preds = %entry
  call void @_ZN6google15LogMessageFatalC1EPKci(ptr noundef nonnull align 8 dereferenceable(96) %ref.tmp2, ptr noundef nonnull @.str, i32 noundef 199)
  %call = invoke noundef nonnull align 8 dereferenceable(8) ptr @_ZN6google10LogMessage6streamEv(ptr noundef nonnull align 8 dereferenceable(96) %ref.tmp2)
          to label %invoke.cont unwind label %lpad

invoke.cont:                                      ; preds = %cond.false
  %call4 = invoke noundef nonnull align 8 dereferenceable(8) ptr @_ZStlsISt11char_traitsIcEERSt13basic_ostreamIcT_ES5_PKc(ptr noundef nonnull align 8 dereferenceable(8) %call, ptr noundef nonnull @.str.9)
          to label %cleanup.action unwind label %lpad

cleanup.action:                                   ; preds = %invoke.cont
  call void @_ZN6google15LogMessageFatalD1Ev(ptr noundef nonnull align 8 dereferenceable(96) %ref.tmp2) #30
  unreachable

lpad:                                             ; preds = %invoke.cont, %cond.false
  %2 = landingpad { ptr, i32 }
          cleanup
  call void @_ZN6google15LogMessageFatalD1Ev(ptr noundef nonnull align 8 dereferenceable(96) %ref.tmp2) #30
  unreachable

cleanup.done:                                     ; preds = %entry
  store i8 0, ptr %enqueued_, align 1
  tail call void @_ZN8proxygen18HTTP2PriorityQueue4Node27propagatePendingEgressClearEPS1_(ptr noundef nonnull %this)
  ret void
}